target datalayout = "e-m:e-p270:32:32-p271:32:32-p272:64:64-i64:64-i128:128-f80:128-n8:16:32:64-S128"
target triple = "x86_64-pc-linux-gnu"

%struct._dcerpc_info = type { ptr, i32, i64, i8, i8, i8, i32, i32, i32, i32, i32, i32, i32, i32, ptr, ptr, ptr, ptr, %struct.anon }
%struct.anon = type { i8, ptr, ptr, ptr, i8 }

; Function Attrs: null_pointer_is_valid sspstrong uwtable
define i32 @dissect_ndr_nt_NTTIME(ptr noundef %0, i32 noundef %1, ptr noundef %2, ptr noundef %3, ptr noundef %4, ptr noundef %5, i32 noundef %6) #0 {
  %8 = alloca i32, align 4
  %9 = alloca ptr, align 8
  %10 = alloca i32, align 4
  %11 = alloca ptr, align 8
  %12 = alloca ptr, align 8
  %13 = alloca ptr, align 8
  %14 = alloca ptr, align 8
  %15 = alloca i32, align 4
  store ptr %0, ptr %9, align 8
  store i32 %1, ptr %10, align 4
  store ptr %2, ptr %11, align 8
  store ptr %3, ptr %12, align 8
  store ptr %4, ptr %13, align 8
  store ptr %5, ptr %14, align 8
  store i32 %6, ptr %15, align 4
  %16 = load ptr, ptr %13, align 8
  %17 = getelementptr inbounds nuw %struct._dcerpc_info, ptr %16, i32 0, i32 4
  %18 = load i8, ptr %17, align 1, !range !6, !noundef !7
  %19 = trunc i8 %18 to i1
  br i1 %19, label %20, label %22

20:                                               ; preds = %7
  %21 = load i32, ptr %10, align 4
  store i32 %21, ptr %8, align 4
  br label %52

22:                                               ; preds = %7
  %23 = load ptr, ptr %13, align 8
  %24 = getelementptr inbounds nuw %struct._dcerpc_info, ptr %23, i32 0, i32 4
  %25 = load i8, ptr %24, align 1, !range !6, !noundef !7
  %26 = trunc i8 %25 to i1
  br i1 %26, label %36, label %27

27:                                               ; preds = %22
  %28 = load i32, ptr %10, align 4
  %29 = and i32 %28, 3
  %30 = icmp ne i32 %29, 0
  br i1 %30, label %31, label %35

31:                                               ; preds = %27
  %32 = load i32, ptr %10, align 4
  %33 = and i32 %32, -4
  %34 = add i32 %33, 4
  store i32 %34, ptr %10, align 4
  br label %35

35:                                               ; preds = %31, %27
  br label %36

36:                                               ; preds = %35, %22
  %37 = load ptr, ptr %9, align 8
  %38 = load ptr, ptr %12, align 8
  %39 = load i32, ptr %10, align 4
  %40 = load i32, ptr %15, align 4
  %41 = load ptr, ptr %14, align 8
  %42 = getelementptr i8, ptr %41, i64 0
  %43 = load i8, ptr %42, align 1
  %44 = zext i8 %43 to i32
  %45 = and i32 %44, 16
  %46 = icmp ne i32 %45, 0
  %47 = select i1 %46, i32 -2147483648, i32 0
  %48 = call ptr @dissect_nttime(ptr noundef %37, ptr noundef %38, i32 noundef %39, i32 noundef %40, i32 noundef %47)
  %49 = load i32, ptr %10, align 4
  %50 = add i32 %49, 8
  store i32 %50, ptr %10, align 4
  %51 = load i32, ptr %10, align 4
  store i32 %51, ptr %8, align 4
  br label %52

52:                                               ; preds = %36, %20
  %53 = load i32, ptr %8, align 4
  ret i32 %53
}