; Function Attrs: null_pointer_is_valid sspstrong uwtable
define noundef i32 @dissect_ndr_nt_NTTIME(ptr noundef %0, i32 noundef %1, ptr noundef readnone captures(none) %2, ptr noundef %3, ptr noundef readonly captures(none) %4, ptr noundef readonly captures(none) %5, i32 noundef %6) local_unnamed_addr #0 {
  %8 = getelementptr inbounds nuw i8, ptr %4, i64 25
  %9 = load i8, ptr %8, align 1, !range !6, !noundef !7
  %10 = trunc nuw i8 %9 to i1
  br i1 %10, label %18, label %11

11:                                               ; preds = %7
  %.biased = add i32 %1, 3
  %.012 = and i32 %.biased, -4
  %12 = load i8, ptr %5, align 1
  %13 = and i8 %12, 16
  %14 = zext nneg i8 %13 to i32
  %15 = shl nuw i32 %14, 27
  %16 = tail call ptr @dissect_nttime(ptr noundef %0, ptr noundef %3, i32 noundef %.012, i32 noundef %6, i32 noundef %15)
  %17 = add i32 %.012, 8
  br label %18

18:                                               ; preds = %7, %11
  %.0 = phi i32 [ %17, %11 ], [ %1, %7 ]
  ret i32 %.0
}